target datalayout = "e-m:e-p270:32:32-p271:32:32-p272:64:64-i64:64-i128:128-f80:128-n8:16:32:64-S128"
target triple = "x86_64-pc-linux-gnu"

; Function Attrs: nounwind uwtable
define dso_local i32 @string2ld(ptr noundef %0, i64 noundef %1, ptr noundef %2) #0 {
  %4 = alloca i32, align 4
  %5 = alloca ptr, align 8
  %6 = alloca i64, align 8
  %7 = alloca ptr, align 8
  %8 = alloca [5120 x i8], align 16
  %9 = alloca x86_fp80, align 16
  %10 = alloca ptr, align 8
  %11 = alloca i32, align 4
  store ptr %0, ptr %5, align 8, !tbaa !5
  store i64 %1, ptr %6, align 8, !tbaa !29
  store ptr %2, ptr %7, align 8, !tbaa !44
  call void @llvm.lifetime.start.p0(i64 5120, ptr %8) #13
  call void @llvm.lifetime.start.p0(i64 16, ptr %9) #13
  call void @llvm.lifetime.start.p0(i64 8, ptr %10) #13
  %12 = load i64, ptr %6, align 8, !tbaa !29
  %13 = icmp eq i64 %12, 0
  br i1 %13, label %17, label %14

14:                                               ; preds = %3
  %15 = load i64, ptr %6, align 8, !tbaa !29
  %16 = icmp uge i64 %15, 5120
  br i1 %16, label %17, label %18

17:                                               ; preds = %14, %3
  store i32 0, ptr %4, align 4
  store i32 1, ptr %11, align 4
  br label %91

18:                                               ; preds = %14
  %19 = getelementptr inbounds [5120 x i8], ptr %8, i64 0, i64 0
  %20 = load ptr, ptr %5, align 8, !tbaa !5
  %21 = load i64, ptr %6, align 8, !tbaa !29
  call void @llvm.memcpy.p0.p0.i64(ptr align 16 %19, ptr align 1 %20, i64 %21, i1 false)
  %22 = load i64, ptr %6, align 8, !tbaa !29
  %23 = getelementptr inbounds nuw [5120 x i8], ptr %8, i64 0, i64 %22
  store i8 0, ptr %23, align 1, !tbaa !12
  %24 = call ptr @__errno_location() #14
  store i32 0, ptr %24, align 4, !tbaa !10
  %25 = getelementptr inbounds [5120 x i8], ptr %8, i64 0, i64 0
  %26 = call x86_fp80 @strtold(ptr noundef %25, ptr noundef %10) #13
  store x86_fp80 %26, ptr %9, align 16, !tbaa !46
  %27 = call ptr @__ctype_b_loc() #14
  %28 = load ptr, ptr %27, align 8, !tbaa !24
  %29 = getelementptr inbounds [5120 x i8], ptr %8, i64 0, i64 0
  %30 = load i8, ptr %29, align 16, !tbaa !12
  %31 = sext i8 %30 to i32
  %32 = sext i32 %31 to i64
  %33 = getelementptr inbounds i16, ptr %28, i64 %32
  %34 = load i16, ptr %33, align 2, !tbaa !26
  %35 = zext i16 %34 to i32
  %36 = and i32 %35, 8192
  %37 = icmp ne i32 %36, 0
  br i1 %37, label %75, label %38

38:                                               ; preds = %18
  %39 = load ptr, ptr %10, align 8, !tbaa !5
  %40 = getelementptr inbounds i8, ptr %39, i64 0
  %41 = load i8, ptr %40, align 1, !tbaa !12
  %42 = sext i8 %41 to i32
  %43 = icmp ne i32 %42, 0
  br i1 %43, label %75, label %44

44:                                               ; preds = %38
  %45 = load ptr, ptr %10, align 8, !tbaa !5
  %46 = getelementptr inbounds [5120 x i8], ptr %8, i64 0, i64 0
  %47 = ptrtoint ptr %45 to i64
  %48 = ptrtoint ptr %46 to i64
  %49 = sub i64 %47, %48
  %50 = load i64, ptr %6, align 8, !tbaa !29
  %51 = icmp ne i64 %49, %50
  br i1 %51, label %75, label %52

52:                                               ; preds = %44
  %53 = call ptr @__errno_location() #14
  %54 = load i32, ptr %53, align 4, !tbaa !10
  %55 = icmp eq i32 %54, 34
  br i1 %55, label %56, label %68

56:                                               ; preds = %52
  %57 = load x86_fp80, ptr %9, align 16, !tbaa !46
  %58 = fcmp oeq x86_fp80 %57, 0xK7FFF8000000000000000
  br i1 %58, label %75, label %59

59:                                               ; preds = %56
  %60 = load x86_fp80, ptr %9, align 16, !tbaa !46
  %61 = fcmp oeq x86_fp80 %60, 0xKFFFF8000000000000000
  br i1 %61, label %75, label %62

62:                                               ; preds = %59
  %63 = load x86_fp80, ptr %9, align 16, !tbaa !46
  %64 = fcmp oeq x86_fp80 %63, 0xK00000000000000000000
  br i1 %64, label %65, label %76

65:                                               ; preds = %81, %78, %76, %62
  %66 = phi i32 [ 2, %62 ], [ 0, %76 ], [ 1, %78 ], [ %83, %81 ]
  %67 = icmp eq i32 %66, 2
  br i1 %67, label %75, label %68

68:                                               ; preds = %65, %52
  %69 = call ptr @__errno_location() #14
  %70 = load i32, ptr %69, align 4, !tbaa !10
  %71 = icmp eq i32 %70, 22
  br i1 %71, label %75, label %72

72:                                               ; preds = %68
  %73 = load x86_fp80, ptr %9, align 16, !tbaa !46
  %74 = call i1 @llvm.is.fpclass.f80(x86_fp80 %73, i32 3)
  br i1 %74, label %75, label %84

75:                                               ; preds = %72, %68, %65, %59, %56, %44, %38, %18
  store i32 0, ptr %4, align 4
  store i32 1, ptr %11, align 4
  br label %91

76:                                               ; preds = %62
  %77 = fcmp uno x86_fp80 %63, %63
  br i1 %77, label %65, label %78

78:                                               ; preds = %76
  %79 = call x86_fp80 @llvm.fabs.f80(x86_fp80 %63) #16
  %80 = fcmp oeq x86_fp80 %79, 0xK7FFF8000000000000000
  br i1 %80, label %65, label %81

81:                                               ; preds = %78
  %82 = fcmp uge x86_fp80 %79, 0xK00018000000000000000
  %83 = select i1 %82, i32 4, i32 3
  br label %65

84:                                               ; preds = %72
  %85 = load ptr, ptr %7, align 8, !tbaa !44
  %86 = icmp ne ptr %85, null
  br i1 %86, label %87, label %90

87:                                               ; preds = %84
  %88 = load x86_fp80, ptr %9, align 16, !tbaa !46
  %89 = load ptr, ptr %7, align 8, !tbaa !44
  store x86_fp80 %88, ptr %89, align 16, !tbaa !46
  br label %90

90:                                               ; preds = %87, %84
  store i32 1, ptr %4, align 4
  store i32 1, ptr %11, align 4
  br label %91

91:                                               ; preds = %90, %75, %17
  call void @llvm.lifetime.end.p0(i64 8, ptr %10) #13
  call void @llvm.lifetime.end.p0(i64 16, ptr %9) #13
  call void @llvm.lifetime.end.p0(i64 5120, ptr %8) #13
  %92 = load i32, ptr %4, align 4
  ret i32 %92
}