; Function Attrs: mustprogress nofree nounwind willreturn uwtable
define dso_local range(i32 0, 2) i32 @string2ld(ptr noundef readonly captures(none) %0, i64 noundef %1, ptr noundef writeonly captures(address_is_null) %2) local_unnamed_addr #15 {
  %4 = alloca [5120 x i8], align 16
  %5 = alloca ptr, align 8
  call void @llvm.lifetime.start.p0(i64 5120, ptr nonnull %4) #29
  call void @llvm.lifetime.start.p0(i64 8, ptr nonnull %5) #29
  %6 = add i64 %1, -5120
  %or.cond = icmp ult i64 %6, -5119
  br i1 %or.cond, label %.critedge, label %7

7:                                                ; preds = %3
  call void @llvm.memcpy.p0.p0.i64(ptr nonnull align 16 %4, ptr align 1 %0, i64 %1, i1 false)
  %8 = getelementptr inbounds nuw [5120 x i8], ptr %4, i64 0, i64 %1
  store i8 0, ptr %8, align 1, !tbaa !9
  %9 = tail call ptr @__errno_location() #30
  store i32 0, ptr %9, align 4, !tbaa !5
  %10 = call x86_fp80 @strtold(ptr noundef nonnull %4, ptr noundef nonnull %5) #29
  %11 = tail call ptr @__ctype_b_loc() #30
  %12 = load ptr, ptr %11, align 8, !tbaa !22
  %13 = load i8, ptr %4, align 16, !tbaa !9
  %14 = sext i8 %13 to i64
  %15 = getelementptr inbounds i16, ptr %12, i64 %14
  %16 = load i16, ptr %15, align 2, !tbaa !24
  %17 = and i16 %16, 8192
  %.not = icmp eq i16 %17, 0
  br i1 %.not, label %18, label %.critedge

18:                                               ; preds = %7
  %19 = load ptr, ptr %5, align 8, !tbaa !27
  %20 = load i8, ptr %19, align 1, !tbaa !9
  %.not20 = icmp eq i8 %20, 0
  %21 = ptrtoint ptr %19 to i64
  %22 = ptrtoint ptr %4 to i64
  %23 = sub i64 %21, %22
  %.not21 = icmp eq i64 %23, %1
  %or.cond25 = and i1 %.not20, %.not21
  br i1 %or.cond25, label %24, label %.critedge

24:                                               ; preds = %18
  %25 = load i32, ptr %9, align 4, !tbaa !5
  %26 = icmp eq i32 %25, 34
  br i1 %26, label %27, label %28

27:                                               ; preds = %24
  %or.cond27 = call i1 @llvm.is.fpclass.f80(x86_fp80 %10, i32 612)
  br i1 %or.cond27, label %.critedge, label %28

28:                                               ; preds = %27, %24
  %29 = icmp eq i32 %25, 22
  %30 = fcmp uno x86_fp80 %10, 0xK00000000000000000000
  %or.cond26 = select i1 %29, i1 true, i1 %30
  br i1 %or.cond26, label %.critedge, label %31

31:                                               ; preds = %28
  %.not22 = icmp eq ptr %2, null
  br i1 %.not22, label %.critedge, label %32

32:                                               ; preds = %31
  store x86_fp80 %10, ptr %2, align 16, !tbaa !40
  br label %.critedge

.critedge:                                        ; preds = %31, %32, %7, %18, %27, %28, %3
  %.0 = phi i32 [ 0, %3 ], [ 0, %28 ], [ 0, %27 ], [ 0, %18 ], [ 0, %7 ], [ 1, %32 ], [ 1, %31 ]
  call void @llvm.lifetime.end.p0(i64 8, ptr nonnull %5) #29
  call void @llvm.lifetime.end.p0(i64 5120, ptr nonnull %4) #29
  ret i32 %.0
}